; Function Attrs: uwtable
define dso_local noundef zeroext i1 @_ZThn8_N10cmDebugger30cmDebuggerPipeConnection_POSIX5writeEPKvm(ptr noundef %0, ptr nocapture noundef readonly %1, i64 noundef %2) unnamed_addr #9 align 2 {
  %4 = getelementptr inbounds i8, ptr %0, i64 -8
  %5 = getelementptr inbounds i8, ptr %0, i64 204
  %6 = load i32, ptr %5, align 4
  %7 = icmp sgt i32 %6, -1
  br i1 %7, label %8, label %_ZN10cmDebugger30cmDebuggerPipeConnection_POSIX5writeEPKvm.exit

8:                                                ; preds = %3
  %9 = tail call i64 @write(i32 noundef %6, ptr noundef %1, i64 noundef %2)
  %10 = icmp sgt i64 %9, -1
  br i1 %10, label %_ZN10cmDebugger30cmDebuggerPipeConnection_POSIX5writeEPKvm.exit, label %11

11:                                               ; preds = %8
  %12 = load ptr, ptr %4, align 8
  %13 = getelementptr inbounds i8, ptr %12, i64 24
  %14 = load ptr, ptr %13, align 8
  tail call void %14(ptr noundef nonnull align 8 dereferenceable(216) %4)
  br label %_ZN10cmDebugger30cmDebuggerPipeConnection_POSIX5writeEPKvm.exit

_ZN10cmDebugger30cmDebuggerPipeConnection_POSIX5writeEPKvm.exit: ; preds = %3, %8, %11
  %.0.shrunk.i = phi i1 [ true, %8 ], [ false, %11 ], [ false, %3 ]
  ret i1 %.0.shrunk.i
}